; Function Attrs: mustprogress uwtable
define internal fastcc void @"_ZNO8pybind116detail15argument_loaderIJEE4callINS_4listENS0_9void_typeERZ27test_submodule_numpy_dtypesRNS_7module_EE4$_13EENSt9enable_ifIXntsr3std7is_voidIT_EE5valueESB_E4typeEOT1_"(ptr dead_on_unwind noalias writable align 8 %0, ptr nocapture noundef nonnull readonly align 8 dereferenceable(24) %1) unnamed_addr #1 align 2 personality ptr @__gxx_personality_v0 {
  %3 = alloca i8, align 1
  %4 = alloca %"class.pybind11::dtype", align 8
  tail call void @llvm.experimental.noalias.scope.decl(metadata !2002)
  tail call void @llvm.experimental.noalias.scope.decl(metadata !2005)
  call void @llvm.lifetime.start.p0(i64 1, ptr nonnull %3), !noalias !2002
  call void @llvm.lifetime.start.p0(i64 8, ptr nonnull %4), !noalias !2002
  %5 = tail call ptr @PyList_New(i64 noundef 0), !noalias !2008
  store ptr %5, ptr %0, align 8, !alias.scope !2008
  %.not.i.i.i = icmp eq ptr %5, null
  br i1 %.not.i.i.i, label %6, label %_ZN8pybind114listC2IlTnNSt9enable_ifIXsr3std11is_integralIT_EE5valueEiE4typeELi0EEES3_.exit.i.i

6:                                                ; preds = %2
  invoke void @_ZN8pybind1113pybind11_failEPKc(ptr noundef nonnull @.str.235) #29
          to label %7 unwind label %8, !noalias !2008

7:                                                ; preds = %6
  unreachable

common.resume.i.i:                                ; preds = %32, %8
  %common.resume.op.i.i = phi { ptr, i32 } [ %9, %8 ], [ %.pn.i.i, %32 ]
  resume { ptr, i32 } %common.resume.op.i.i

8:                                                ; preds = %6
  %9 = landingpad { ptr, i32 }
          cleanup
  tail call void @_ZN8pybind116objectD2Ev(ptr noundef nonnull align 8 dereferenceable(8) %0) #24
  br label %common.resume.i.i

_ZN8pybind114listC2IlTnNSt9enable_ifIXsr3std11is_integralIT_EE5valueEiE4typeELi0EEES3_.exit.i.i: ; preds = %2
  %10 = load ptr, ptr %1, align 8, !noalias !2008
  %11 = getelementptr inbounds i8, ptr %1, i64 8
  %12 = load ptr, ptr %11, align 8, !noalias !2008
  %.not11.i.i = icmp eq ptr %10, %12
  br i1 %.not11.i.i, label %"_ZNO8pybind116detail15argument_loaderIJEE9call_implINS_4listERZ27test_submodule_numpy_dtypesRNS_7module_EE4$_13TpTnmJENS0_9void_typeEEET_OT0_St16integer_sequenceImJXspT1_EEEOT2_.exit", label %.lr.ph.i.i

.lr.ph.i.i:                                       ; preds = %_ZN8pybind114listC2IlTnNSt9enable_ifIXsr3std11is_integralIT_EE5valueEiE4typeELi0EEES3_.exit.i.i, %_ZN8pybind115dtypeD2Ev.exit.i.i
  %.sroa.08.012.i.i = phi ptr [ %27, %_ZN8pybind115dtypeD2Ev.exit.i.i ], [ %10, %_ZN8pybind114listC2IlTnNSt9enable_ifIXsr3std11is_integralIT_EE5valueEiE4typeELi0EEES3_.exit.i.i ]
  %13 = load ptr, ptr %.sroa.08.012.i.i, align 8
  invoke void @_ZN8pybind115dtypeC2EPKc(ptr noundef nonnull align 8 dereferenceable(8) %4, ptr noundef %13)
          to label %14 unwind label %28

14:                                               ; preds = %.lr.ph.i.i
  %15 = load ptr, ptr %4, align 8, !noalias !2008
  %16 = getelementptr inbounds i8, ptr %15, i64 26
  %17 = load i8, ptr %16, align 2
  store i8 %17, ptr %3, align 1, !noalias !2008
  invoke void @_ZN8pybind114list6appendIcEEvOT_(ptr noundef nonnull align 8 dereferenceable(8) %0, ptr noundef nonnull align 1 dereferenceable(1) %3)
          to label %18 unwind label %30

18:                                               ; preds = %14
  %19 = load ptr, ptr %4, align 8, !noalias !2008
  %.not.i.i.i.i.i.i = icmp eq ptr %19, null
  br i1 %.not.i.i.i.i.i.i, label %_ZN8pybind115dtypeD2Ev.exit.i.i, label %20

20:                                               ; preds = %18
  %21 = load i64, ptr %19, align 8
  %22 = add nsw i64 %21, -1
  store i64 %22, ptr %19, align 8
  %.not.i.i.i.i.i.i.i = icmp eq i64 %22, 0
  br i1 %.not.i.i.i.i.i.i.i, label %23, label %_ZN8pybind115dtypeD2Ev.exit.i.i

23:                                               ; preds = %20
  invoke void @_Py_Dealloc(ptr noundef nonnull %19)
          to label %_ZN8pybind115dtypeD2Ev.exit.i.i unwind label %24

24:                                               ; preds = %23
  %25 = landingpad { ptr, i32 }
          catch ptr null
  %26 = extractvalue { ptr, i32 } %25, 0
  call void @__clang_call_terminate(ptr %26) #25
  unreachable

_ZN8pybind115dtypeD2Ev.exit.i.i:                  ; preds = %23, %20, %18
  %27 = getelementptr inbounds i8, ptr %.sroa.08.012.i.i, i64 8
  %.not.i.i = icmp eq ptr %27, %12
  br i1 %.not.i.i, label %"_ZNO8pybind116detail15argument_loaderIJEE9call_implINS_4listERZ27test_submodule_numpy_dtypesRNS_7module_EE4$_13TpTnmJENS0_9void_typeEEET_OT0_St16integer_sequenceImJXspT1_EEEOT2_.exit", label %.lr.ph.i.i

28:                                               ; preds = %.lr.ph.i.i
  %29 = landingpad { ptr, i32 }
          cleanup
  br label %32

30:                                               ; preds = %14
  %31 = landingpad { ptr, i32 }
          cleanup
  call void @_ZN8pybind115dtypeD2Ev(ptr noundef nonnull align 8 dereferenceable(8) %4) #24
  br label %32

32:                                               ; preds = %30, %28
  %.pn.i.i = phi { ptr, i32 } [ %31, %30 ], [ %29, %28 ]
  call void @_ZN8pybind114listD2Ev(ptr noundef nonnull align 8 dereferenceable(8) %0) #24
  br label %common.resume.i.i

"_ZNO8pybind116detail15argument_loaderIJEE9call_implINS_4listERZ27test_submodule_numpy_dtypesRNS_7module_EE4$_13TpTnmJENS0_9void_typeEEET_OT0_St16integer_sequenceImJXspT1_EEEOT2_.exit": ; preds = %_ZN8pybind115dtypeD2Ev.exit.i.i, %_ZN8pybind114listC2IlTnNSt9enable_ifIXsr3std11is_integralIT_EE5valueEiE4typeELi0EEES3_.exit.i.i
  call void @llvm.lifetime.end.p0(i64 1, ptr nonnull %3), !noalias !2002
  call void @llvm.lifetime.end.p0(i64 8, ptr nonnull %4), !noalias !2002
  ret void
}